target datalayout = "e-m:e-p270:32:32-p271:32:32-p272:64:64-i64:64-i128:128-f80:128-n8:16:32:64-S128"
target triple = "x86_64-pc-linux-gnu"

%"struct.std::atomic" = type { %"struct.std::__atomic_base" }
%"struct.std::__atomic_base" = type { ptr }
%"struct.pxrInternal_v0_24__pxrReserved__::TfEnvSetting" = type { ptr, ptr, ptr, ptr }

@_ZN32pxrInternal_v0_24__pxrReserved__30PXR_NDR_FS_PLUGIN_SEARCH_PATHSB5cxx11E = global %"struct.pxrInternal_v0_24__pxrReserved__::TfEnvSetting" { ptr @_ZN32pxrInternal_v0_24__pxrReserved__36PXR_NDR_FS_PLUGIN_SEARCH_PATHS_valueB5cxx11E, ptr @.str.2, ptr @.str.3, ptr @.str.4 }, align 8

; Function Attrs: mustprogress nounwind uwtable
define linkonce_odr noundef i32 @_ZStanSt12memory_orderSt23__memory_order_modifier(i32 noundef %0, i32 noundef %1) #2 comdat {
  %3 = alloca i32, align 4
  %4 = alloca i32, align 4
  store i32 %0, ptr %3, align 4
  store i32 %1, ptr %4, align 4
  %5 = load i32, ptr %3, align 4
  %6 = load i32, ptr %4, align 4
  %7 = and i32 %5, %6
  ret i32 %7
}

; Function Attrs: mustprogress nounwind uwtable
define linkonce_odr noundef ptr @_ZNKSt6atomicIPNSt7__cxx1112basic_stringIcSt11char_traitsIcESaIcEEEE4loadESt12memory_order(ptr noundef nonnull align 8 dereferenceable(8) %0, i32 noundef %1) #2 comdat align 2 {
  %3 = alloca ptr, align 8
  %4 = alloca i32, align 4
  %5 = alloca i32, align 4
  %6 = alloca ptr, align 8
  %7 = alloca ptr, align 8
  %8 = alloca i32, align 4
  store ptr %0, ptr %7, align 8
  store i32 %1, ptr %8, align 4
  %9 = load ptr, ptr %7, align 8
  %10 = getelementptr inbounds nuw %"struct.std::atomic", ptr %9, i32 0, i32 0
  %11 = load i32, ptr %8, align 4
  store ptr %10, ptr %3, align 8
  store i32 %11, ptr %4, align 4
  %12 = load ptr, ptr %3, align 8
  %13 = load i32, ptr %4, align 4
  %14 = call noundef i32 @_ZStanSt12memory_orderSt23__memory_order_modifier(i32 noundef %13, i32 noundef 65535)
  store i32 %14, ptr %5, align 4
  %15 = load i32, ptr %4, align 4
  switch i32 %15, label %16 [
    i32 1, label %18
    i32 2, label %18
    i32 5, label %20
  ]

16:                                               ; preds = %2
  %17 = load atomic i64, ptr %12 monotonic, align 8
  store i64 %17, ptr %6, align 8
  br label %22

18:                                               ; preds = %2, %2
  %19 = load atomic i64, ptr %12 acquire, align 8
  store i64 %19, ptr %6, align 8
  br label %22

20:                                               ; preds = %2
  %21 = load atomic i64, ptr %12 seq_cst, align 8
  store i64 %21, ptr %6, align 8
  br label %22

22:                                               ; preds = %20, %18, %16
  %23 = load ptr, ptr %6, align 8
  ret ptr %23
}

; Function Attrs: mustprogress uwtable
define linkonce_odr noundef nonnull align 8 dereferenceable(32) ptr @_ZN32pxrInternal_v0_24__pxrReserved__15TfGetEnvSettingINSt7__cxx1112basic_stringIcSt11char_traitsIcESaIcEEEEERKT_RNS_12TfEnvSettingIS7_EE(ptr noundef nonnull align 8 dereferenceable(32) %0) #0 comdat {
  %2 = alloca ptr, align 8
  %3 = alloca ptr, align 8
  store ptr %0, ptr %2, align 8
  %4 = load ptr, ptr %2, align 8
  %5 = getelementptr inbounds nuw %"struct.pxrInternal_v0_24__pxrReserved__::TfEnvSetting", ptr %4, i32 0, i32 0
  %6 = load ptr, ptr %5, align 8
  %7 = call noundef ptr @_ZNKSt6atomicIPNSt7__cxx1112basic_stringIcSt11char_traitsIcESaIcEEEE4loadESt12memory_order(ptr noundef nonnull align 8 dereferenceable(8) %6, i32 noundef 5) #6
  store ptr %7, ptr %3, align 8
  %8 = load ptr, ptr %3, align 8
  %9 = icmp ne ptr %8, null
  %10 = xor i1 %9, true
  br i1 %10, label %11, label %17

11:                                               ; preds = %1
  %12 = load ptr, ptr %2, align 8
  call void @_ZN32pxrInternal_v0_24__pxrReserved__23Tf_InitializeEnvSettingINSt7__cxx1112basic_stringIcSt11char_traitsIcESaIcEEEEEvPNS_12TfEnvSettingIT_EE(ptr noundef %12)
  %13 = load ptr, ptr %2, align 8
  %14 = getelementptr inbounds nuw %"struct.pxrInternal_v0_24__pxrReserved__::TfEnvSetting", ptr %13, i32 0, i32 0
  %15 = load ptr, ptr %14, align 8
  %16 = call noundef ptr @_ZNKSt6atomicIPNSt7__cxx1112basic_stringIcSt11char_traitsIcESaIcEEEE4loadESt12memory_order(ptr noundef nonnull align 8 dereferenceable(8) %15, i32 noundef 5) #6
  store ptr %16, ptr %3, align 8
  br label %17

17:                                               ; preds = %11, %1
  %18 = load ptr, ptr %3, align 8
  ret ptr %18
}

; Function Attrs: mustprogress uwtable
define internal void @_ZN32pxrInternal_v0_24__pxrReserved__L52_Tf_RegistryFunctionPXR_NDR_FS_PLUGIN_SEARCH_PATHS26EPNS_21Tf_EnvSettingRegistryEPv(ptr noundef %0, ptr noundef %1) #0 {
  %3 = alloca ptr, align 8
  %4 = alloca ptr, align 8
  store ptr %0, ptr %3, align 8
  store ptr %1, ptr %4, align 8
  %5 = call noundef nonnull align 8 dereferenceable(32) ptr @_ZN32pxrInternal_v0_24__pxrReserved__15TfGetEnvSettingINSt7__cxx1112basic_stringIcSt11char_traitsIcESaIcEEEEERKT_RNS_12TfEnvSettingIS7_EE(ptr noundef nonnull align 8 dereferenceable(32) @_ZN32pxrInternal_v0_24__pxrReserved__30PXR_NDR_FS_PLUGIN_SEARCH_PATHSB5cxx11E)
  ret void
}