; Function Attrs: mustprogress uwtable
define internal void @_ZN32pxrInternal_v0_24__pxrReserved__L52_Tf_RegistryFunctionPXR_NDR_FS_PLUGIN_SEARCH_PATHS26EPNS_21Tf_EnvSettingRegistryEPv(ptr nocapture readnone %0, ptr nocapture readnone %1) #0 {
  %3 = load ptr, ptr @_ZN32pxrInternal_v0_24__pxrReserved__30PXR_NDR_FS_PLUGIN_SEARCH_PATHSB5cxx11E, align 8
  %4 = load atomic i64, ptr %3 seq_cst, align 8
  %.not.i = icmp eq i64 %4, 0
  br i1 %.not.i, label %5, label %_ZN32pxrInternal_v0_24__pxrReserved__15TfGetEnvSettingINSt7__cxx1112basic_stringIcSt11char_traitsIcESaIcEEEEERKT_RNS_12TfEnvSettingIS7_EE.exit

5:                                                ; preds = %2
  tail call void @_ZN32pxrInternal_v0_24__pxrReserved__23Tf_InitializeEnvSettingINSt7__cxx1112basic_stringIcSt11char_traitsIcESaIcEEEEEvPNS_12TfEnvSettingIT_EE(ptr noundef nonnull @_ZN32pxrInternal_v0_24__pxrReserved__30PXR_NDR_FS_PLUGIN_SEARCH_PATHSB5cxx11E)
  %6 = load ptr, ptr @_ZN32pxrInternal_v0_24__pxrReserved__30PXR_NDR_FS_PLUGIN_SEARCH_PATHSB5cxx11E, align 8
  %7 = load atomic i64, ptr %6 seq_cst, align 8
  br label %_ZN32pxrInternal_v0_24__pxrReserved__15TfGetEnvSettingINSt7__cxx1112basic_stringIcSt11char_traitsIcESaIcEEEEERKT_RNS_12TfEnvSettingIS7_EE.exit

_ZN32pxrInternal_v0_24__pxrReserved__15TfGetEnvSettingINSt7__cxx1112basic_stringIcSt11char_traitsIcESaIcEEEEERKT_RNS_12TfEnvSettingIS7_EE.exit: ; preds = %2, %5
  ret void
}